target datalayout = "e-m:e-p270:32:32-p271:32:32-p272:64:64-i64:64-i128:128-f80:128-n8:16:32:64-S128"
target triple = "x86_64-pc-linux-gnu"

%struct._packet_info = type { ptr, ptr, i32, i32, %struct.nstime_t, %struct.nstime_t, %struct.nstime_t, i8, ptr, ptr, ptr, ptr, %struct._address, %struct._address, %struct._address, %struct._address, %struct._address, %struct._address, i32, ptr, i8, [3 x i8], %struct.anon, i32, i32, i32, i32, ptr, i8, ptr, ptr, i16, i16, i32, i32, i16, i32, i32, ptr, ptr, ptr, i8, i8, i16, i16, i16, i32, i16, i16, ptr, ptr, ptr, ptr, ptr, i32, i32 }
%struct.nstime_t = type { i64, i32 }
%struct._address = type { i32, i32, ptr, ptr }
%struct.anon = type { i8, [3 x i8] }

@hf_mount_groups = internal global i32 0, align 4
@hf_mount_exportlist_directory = internal global i32 0, align 4
@hf_mount_exportlist = internal global i32 0, align 4
@ett_mount_groups = internal global i32 0, align 4
@ett_mount_exportlist = internal global i32 0, align 4
@.str.192 = private unnamed_addr constant [1 x i8] zeroinitializer, align 1
@.str.193 = private unnamed_addr constant [14 x i8] c"Groups: empty\00", align 1
@.str.194 = private unnamed_addr constant [28 x i8] c"Export List Entry: %s -> %s\00", align 1

; Function Attrs: null_pointer_is_valid sspstrong uwtable
define internal i32 @dissect_exportlist(ptr noundef %0, i32 noundef %1, ptr noundef %2, ptr noundef %3, ptr noundef %4) #0 {
  %6 = alloca ptr, align 8
  %7 = alloca i32, align 4
  %8 = alloca ptr, align 8
  %9 = alloca ptr, align 8
  %10 = alloca ptr, align 8
  %11 = alloca ptr, align 8
  %12 = alloca ptr, align 8
  %13 = alloca i32, align 4
  %14 = alloca i32, align 4
  %15 = alloca ptr, align 8
  %16 = alloca ptr, align 8
  %17 = alloca ptr, align 8
  %18 = alloca ptr, align 8
  %19 = alloca ptr, align 8
  store ptr %0, ptr %6, align 8
  store i32 %1, ptr %7, align 4
  store ptr %2, ptr %8, align 8
  store ptr %3, ptr %9, align 8
  store ptr %4, ptr %10, align 8
  call void @llvm.lifetime.start.p0(i64 8, ptr %11) #5
  store ptr null, ptr %11, align 8
  call void @llvm.lifetime.start.p0(i64 8, ptr %12) #5
  store ptr null, ptr %12, align 8
  call void @llvm.lifetime.start.p0(i64 4, ptr %13) #5
  %20 = load i32, ptr %7, align 4
  store i32 %20, ptr %13, align 4
  call void @llvm.lifetime.start.p0(i64 4, ptr %14) #5
  call void @llvm.lifetime.start.p0(i64 8, ptr %15) #5
  store ptr null, ptr %15, align 8
  call void @llvm.lifetime.start.p0(i64 8, ptr %16) #5
  store ptr null, ptr %16, align 8
  call void @llvm.lifetime.start.p0(i64 8, ptr %17) #5
  call void @llvm.lifetime.start.p0(i64 8, ptr %18) #5
  call void @llvm.lifetime.start.p0(i64 8, ptr %19) #5
  %21 = load ptr, ptr %9, align 8
  %22 = icmp ne ptr %21, null
  br i1 %22, label %23, label %32

23:                                               ; preds = %5
  %24 = load ptr, ptr %9, align 8
  %25 = load i32, ptr @hf_mount_exportlist, align 4
  %26 = load ptr, ptr %6, align 8
  %27 = load i32, ptr %7, align 4
  %28 = call ptr @proto_tree_add_item(ptr noundef %24, i32 noundef %25, ptr noundef %26, i32 noundef %27, i32 noundef -1, i32 noundef 0)
  store ptr %28, ptr %11, align 8
  %29 = load ptr, ptr %11, align 8
  %30 = load i32, ptr @ett_mount_exportlist, align 4
  %31 = call ptr @proto_item_add_subtree(ptr noundef %29, i32 noundef %30)
  store ptr %31, ptr %12, align 8
  br label %32

32:                                               ; preds = %23, %5
  %33 = load ptr, ptr %6, align 8
  %34 = load ptr, ptr %12, align 8
  %35 = load i32, ptr @hf_mount_exportlist_directory, align 4
  %36 = load i32, ptr %7, align 4
  %37 = call i32 @dissect_rpc_string(ptr noundef %33, ptr noundef %34, i32 noundef %35, i32 noundef %36, ptr noundef %17)
  store i32 %37, ptr %7, align 4
  %38 = load i32, ptr %7, align 4
  store i32 %38, ptr %14, align 4
  %39 = load ptr, ptr %12, align 8
  %40 = load i32, ptr @hf_mount_groups, align 4
  %41 = load ptr, ptr %6, align 8
  %42 = load i32, ptr %7, align 4
  %43 = call ptr @proto_tree_add_item(ptr noundef %39, i32 noundef %40, ptr noundef %41, i32 noundef %42, i32 noundef -1, i32 noundef 0)
  store ptr %43, ptr %15, align 8
  %44 = load ptr, ptr %15, align 8
  %45 = load i32, ptr @ett_mount_groups, align 4
  %46 = call ptr @proto_item_add_subtree(ptr noundef %44, i32 noundef %45)
  store ptr %46, ptr %16, align 8
  %47 = load ptr, ptr %8, align 8
  %48 = getelementptr inbounds nuw %struct._packet_info, ptr %47, i32 0, i32 51
  %49 = load ptr, ptr %48, align 8
  %50 = call noalias ptr @wmem_strbuf_new(ptr noundef %49, ptr noundef @.str.192)
  store ptr %50, ptr %18, align 8
  %51 = load ptr, ptr %6, align 8
  %52 = load ptr, ptr %8, align 8
  %53 = load ptr, ptr %16, align 8
  %54 = load i32, ptr %7, align 4
  %55 = load ptr, ptr %18, align 8
  %56 = call i32 @dissect_rpc_list(ptr noundef %51, ptr noundef %52, ptr noundef %53, i32 noundef %54, ptr noundef @dissect_group, ptr noundef %55)
  store i32 %56, ptr %7, align 4
  %57 = load ptr, ptr %15, align 8
  %58 = icmp ne ptr %57, null
  br i1 %58, label %59, label %71

59:                                               ; preds = %32
  %60 = load i32, ptr %7, align 4
  %61 = load i32, ptr %14, align 4
  %62 = sub i32 %60, %61
  %63 = icmp eq i32 %62, 4
  br i1 %63, label %64, label %66

64:                                               ; preds = %59
  %65 = load ptr, ptr %15, align 8
  call void (ptr, ptr, ...) @proto_item_set_text(ptr noundef %65, ptr noundef @.str.193)
  br label %66

66:                                               ; preds = %64, %59
  %67 = load ptr, ptr %15, align 8
  %68 = load i32, ptr %7, align 4
  %69 = load i32, ptr %14, align 4
  %70 = sub i32 %68, %69
  call void @proto_item_set_len(ptr noundef %67, i32 noundef %70)
  br label %71

71:                                               ; preds = %66, %32
  %72 = load ptr, ptr %18, align 8
  %73 = call ptr @wmem_strbuf_finalize(ptr noundef %72)
  store ptr %73, ptr %19, align 8
  %74 = load ptr, ptr %11, align 8
  %75 = icmp ne ptr %74, null
  br i1 %75, label %76, label %96

76:                                               ; preds = %71
  %77 = load ptr, ptr %11, align 8
  %78 = load ptr, ptr %8, align 8
  %79 = getelementptr inbounds nuw %struct._packet_info, ptr %78, i32 0, i32 51
  %80 = load ptr, ptr %79, align 8
  %81 = load ptr, ptr %17, align 8
  %82 = load ptr, ptr %17, align 8
  %83 = call i64 @strlen(ptr noundef %82) #6
  %84 = call ptr @format_text(ptr noundef %80, ptr noundef %81, i64 noundef %83)
  %85 = load ptr, ptr %8, align 8
  %86 = getelementptr inbounds nuw %struct._packet_info, ptr %85, i32 0, i32 51
  %87 = load ptr, ptr %86, align 8
  %88 = load ptr, ptr %19, align 8
  %89 = load ptr, ptr %19, align 8
  %90 = call i64 @strlen(ptr noundef %89) #6
  %91 = call ptr @format_text(ptr noundef %87, ptr noundef %88, i64 noundef %90)
  call void (ptr, ptr, ...) @proto_item_set_text(ptr noundef %77, ptr noundef @.str.194, ptr noundef %84, ptr noundef %91)
  %92 = load ptr, ptr %11, align 8
  %93 = load i32, ptr %7, align 4
  %94 = load i32, ptr %13, align 4
  %95 = sub i32 %93, %94
  call void @proto_item_set_len(ptr noundef %92, i32 noundef %95)
  br label %96

96:                                               ; preds = %76, %71
  %97 = load i32, ptr %7, align 4
  call void @llvm.lifetime.end.p0(i64 8, ptr %19) #5
  call void @llvm.lifetime.end.p0(i64 8, ptr %18) #5
  call void @llvm.lifetime.end.p0(i64 8, ptr %17) #5
  call void @llvm.lifetime.end.p0(i64 8, ptr %16) #5
  call void @llvm.lifetime.end.p0(i64 8, ptr %15) #5
  call void @llvm.lifetime.end.p0(i64 4, ptr %14) #5
  call void @llvm.lifetime.end.p0(i64 4, ptr %13) #5
  call void @llvm.lifetime.end.p0(i64 8, ptr %12) #5
  call void @llvm.lifetime.end.p0(i64 8, ptr %11) #5
  ret i32 %97
}