; Function Attrs: null_pointer_is_valid sspstrong uwtable
define internal i32 @dissect_exportlist(ptr noundef %0, i32 noundef %1, ptr noundef %2, ptr noundef %3, ptr readnone captures(none) %4) #0 {
  %6 = alloca ptr, align 8
  call void @llvm.lifetime.start.p0(i64 8, ptr nonnull %6) #5
  %.not = icmp eq ptr %3, null
  br i1 %.not, label %12, label %7

7:                                                ; preds = %5
  %8 = load i32, ptr @hf_mount_exportlist, align 4
  %9 = tail call ptr @proto_tree_add_item(ptr noundef nonnull %3, i32 noundef %8, ptr noundef %0, i32 noundef %1, i32 noundef -1, i32 noundef 0)
  %10 = load i32, ptr @ett_mount_exportlist, align 4
  %11 = tail call ptr @proto_item_add_subtree(ptr noundef %9, i32 noundef %10)
  br label %12

12:                                               ; preds = %7, %5
  %.037 = phi ptr [ %11, %7 ], [ null, %5 ]
  %.0 = phi ptr [ %9, %7 ], [ null, %5 ]
  %13 = load i32, ptr @hf_mount_exportlist_directory, align 4
  %14 = call i32 @dissect_rpc_string(ptr noundef %0, ptr noundef %.037, i32 noundef %13, i32 noundef %1, ptr noundef nonnull %6)
  %15 = load i32, ptr @hf_mount_groups, align 4
  %16 = call ptr @proto_tree_add_item(ptr noundef %.037, i32 noundef %15, ptr noundef %0, i32 noundef %14, i32 noundef -1, i32 noundef 0)
  %17 = load i32, ptr @ett_mount_groups, align 4
  %18 = call ptr @proto_item_add_subtree(ptr noundef %16, i32 noundef %17)
  %19 = getelementptr inbounds nuw i8, ptr %2, i64 408
  %20 = load ptr, ptr %19, align 8
  %21 = call noalias ptr @wmem_strbuf_new(ptr noundef %20, ptr noundef nonnull @.str.192)
  %22 = call i32 @dissect_rpc_list(ptr noundef %0, ptr noundef %2, ptr noundef %18, i32 noundef %14, ptr noundef nonnull @dissect_group, ptr noundef %21)
  %.not40 = icmp eq ptr %16, null
  br i1 %.not40, label %28, label %23

23:                                               ; preds = %12
  %24 = sub i32 %22, %14
  %25 = icmp eq i32 %24, 4
  br i1 %25, label %26, label %27

26:                                               ; preds = %23
  call void (ptr, ptr, ...) @proto_item_set_text(ptr noundef nonnull %16, ptr noundef nonnull @.str.193)
  br label %27

27:                                               ; preds = %26, %23
  call void @proto_item_set_len(ptr noundef nonnull %16, i32 noundef %24)
  br label %28

28:                                               ; preds = %27, %12
  %29 = call ptr @wmem_strbuf_finalize(ptr noundef %21)
  %.not41 = icmp eq ptr %.0, null
  br i1 %.not41, label %39, label %30

30:                                               ; preds = %28
  %31 = load ptr, ptr %19, align 8
  %32 = load ptr, ptr %6, align 8
  %33 = call i64 @strlen(ptr noundef %32) #6
  %34 = call ptr @format_text(ptr noundef %31, ptr noundef %32, i64 noundef %33)
  %35 = load ptr, ptr %19, align 8
  %36 = call i64 @strlen(ptr noundef %29) #6
  %37 = call ptr @format_text(ptr noundef %35, ptr noundef %29, i64 noundef %36)
  call void (ptr, ptr, ...) @proto_item_set_text(ptr noundef nonnull %.0, ptr noundef nonnull @.str.194, ptr noundef %34, ptr noundef %37)
  %38 = sub i32 %22, %1
  call void @proto_item_set_len(ptr noundef nonnull %.0, i32 noundef %38)
  br label %39

39:                                               ; preds = %30, %28
  call void @llvm.lifetime.end.p0(i64 8, ptr nonnull %6) #5
  ret i32 %22
}